; Function Attrs: nofree norecurse nosync nounwind memory(argmem: read) uwtable
define dso_local noundef ptr @first_dir_separator(ptr noundef readonly captures(ret: address, provenance) %0) local_unnamed_addr #1 {
  br label %2

2:                                                ; preds = %4, %1
  %.06 = phi ptr [ %0, %1 ], [ %5, %4 ]
  %3 = load i8, ptr %.06, align 1
  switch i8 %3, label %4 [
    i8 0, label %.loopexit
    i8 47, label %.loopexit.loopexit
  ]

4:                                                ; preds = %2
  %5 = getelementptr inbounds nuw i8, ptr %.06, i64 1
  br label %2, !llvm.loop !4

.loopexit.loopexit:                               ; preds = %2
  br label %.loopexit

.loopexit:                                        ; preds = %2, %.loopexit.loopexit
  %.0 = phi ptr [ %.06, %.loopexit.loopexit ], [ null, %2 ]
  ret ptr %.0
}